target datalayout = "e-m:e-p270:32:32-p271:32:32-p272:64:64-i64:64-i128:128-f80:128-n8:16:32:64-S128"
target triple = "x86_64-pc-linux-gnu"

%struct._object = type { %union.anon, ptr }
%union.anon = type { i64 }
%struct._longobject = type { %struct._object, %struct._PyLongValue }
%struct._PyLongValue = type { i64, [1 x i32] }
%struct._PyXIData_lookup_context_t = type { ptr, ptr, ptr }

@_Py_TrueStruct = external global %struct._longobject, align 8
@_Py_FalseStruct = external global %struct._longobject, align 8
@object_is_shareable.kwlist = internal global [2 x ptr] [ptr @.str.92, ptr null], align 16
@.str.93 = private unnamed_addr constant [15 x i8] c"O:is_shareable\00", align 1

; Function Attrs: nounwind uwtable
define internal ptr @object_is_shareable(ptr noundef %0, ptr noundef %1, ptr noundef %2) #0 {
  %4 = alloca ptr, align 8
  %5 = alloca ptr, align 8
  %6 = alloca ptr, align 8
  %7 = alloca ptr, align 8
  %8 = alloca ptr, align 8
  %9 = alloca i32, align 4
  %10 = alloca ptr, align 8
  %11 = alloca %struct._PyXIData_lookup_context_t, align 8
  store ptr %0, ptr %5, align 8, !tbaa !3
  store ptr %1, ptr %6, align 8, !tbaa !3
  store ptr %2, ptr %7, align 8, !tbaa !3
  call void @llvm.lifetime.start.p0(i64 8, ptr %8) #8
  %12 = load ptr, ptr %6, align 8, !tbaa !3
  %13 = load ptr, ptr %7, align 8, !tbaa !3
  %14 = call i32 (ptr, ptr, ptr, ptr, ...) @PyArg_ParseTupleAndKeywords(ptr noundef %12, ptr noundef %13, ptr noundef @.str.93, ptr noundef @object_is_shareable.kwlist, ptr noundef %8)
  %15 = icmp ne i32 %14, 0
  br i1 %15, label %17, label %16

16:                                               ; preds = %3
  store ptr null, ptr %4, align 8
  store i32 1, ptr %9, align 4
  br label %30

17:                                               ; preds = %3
  call void @llvm.lifetime.start.p0(i64 8, ptr %10) #8
  %18 = call ptr @PyInterpreterState_Get()
  store ptr %18, ptr %10, align 8, !tbaa !15
  call void @llvm.lifetime.start.p0(i64 24, ptr %11) #8
  %19 = load ptr, ptr %10, align 8, !tbaa !15
  %20 = call i32 @_PyXIData_GetLookupContext(ptr noundef %19, ptr noundef %11)
  %21 = icmp slt i32 %20, 0
  br i1 %21, label %22, label %23

22:                                               ; preds = %17
  store ptr null, ptr %4, align 8
  store i32 1, ptr %9, align 4
  br label %29

23:                                               ; preds = %17
  %24 = load ptr, ptr %8, align 8, !tbaa !3
  %25 = call i32 @_PyObject_CheckXIData(ptr noundef %11, ptr noundef %24)
  %26 = icmp eq i32 %25, 0
  br i1 %26, label %27, label %28

27:                                               ; preds = %23
  store ptr @_Py_TrueStruct, ptr %4, align 8
  store i32 1, ptr %9, align 4
  br label %29

28:                                               ; preds = %23
  call void @PyErr_Clear()
  store ptr @_Py_FalseStruct, ptr %4, align 8
  store i32 1, ptr %9, align 4
  br label %29

29:                                               ; preds = %28, %27, %22
  call void @llvm.lifetime.end.p0(i64 24, ptr %11) #8
  call void @llvm.lifetime.end.p0(i64 8, ptr %10) #8
  br label %30

30:                                               ; preds = %29, %16
  call void @llvm.lifetime.end.p0(i64 8, ptr %8) #8
  %31 = load ptr, ptr %4, align 8
  ret ptr %31
}