; Function Attrs: nounwind uwtable
define internal noundef ptr @object_is_shareable(ptr readnone captures(none) %0, ptr noundef %1, ptr noundef %2) #0 {
  %4 = alloca ptr, align 8
  %5 = alloca %struct._PyXIData_lookup_context_t, align 8
  call void @llvm.lifetime.start.p0(i64 8, ptr nonnull %4) #7
  %6 = call i32 (ptr, ptr, ptr, ptr, ...) @PyArg_ParseTupleAndKeywords(ptr noundef %1, ptr noundef %2, ptr noundef nonnull @.str.93, ptr noundef nonnull @object_is_shareable.kwlist, ptr noundef nonnull %4) #7
  %.not = icmp eq i32 %6, 0
  br i1 %.not, label %17, label %7

7:                                                ; preds = %3
  %8 = call ptr @PyInterpreterState_Get() #7
  call void @llvm.lifetime.start.p0(i64 24, ptr nonnull %5) #7
  %9 = call i32 @_PyXIData_GetLookupContext(ptr noundef %8, ptr noundef nonnull %5) #7
  %10 = icmp slt i32 %9, 0
  br i1 %10, label %16, label %11

11:                                               ; preds = %7
  %12 = load ptr, ptr %4, align 8, !tbaa !15
  %13 = call i32 @_PyObject_CheckXIData(ptr noundef nonnull %5, ptr noundef %12) #7
  %14 = icmp eq i32 %13, 0
  br i1 %14, label %16, label %15

15:                                               ; preds = %11
  call void @PyErr_Clear() #7
  br label %16

16:                                               ; preds = %11, %7, %15
  %.1 = phi ptr [ @_Py_FalseStruct, %15 ], [ null, %7 ], [ @_Py_TrueStruct, %11 ]
  call void @llvm.lifetime.end.p0(i64 24, ptr nonnull %5) #7
  br label %17

17:                                               ; preds = %3, %16
  %.0 = phi ptr [ %.1, %16 ], [ null, %3 ]
  call void @llvm.lifetime.end.p0(i64 8, ptr nonnull %4) #7
  ret ptr %.0
}